; ModuleID = '19/2052.c'
source_filename = "19/2052.c"
target datalayout = "e-m:e-p270:32:32-p271:32:32-p272:64:64-i64:64-f80:128-n8:16:32:64-S128"
target triple = "x86_64-pc-linux-gnu"

@.str = private unnamed_addr constant [3 x i8] c"%c\00", align 1
@.str.1 = private unnamed_addr constant [3 x i8] c"%s\00", align 1

; Function Attrs: noinline nounwind uwtable
define dso_local i32 @main() #0 {
  %1 = alloca i32, align 4
  %2 = alloca [101 x i8], align 16
  %3 = alloca [101 x i8], align 16
  %4 = alloca [101 x i8], align 16
  %5 = alloca i32, align 4
  %6 = alloca i32, align 4
  %7 = alloca i32, align 4
  %8 = alloca i32, align 4
  %9 = alloca i32, align 4
  %10 = alloca i32, align 4
  %11 = alloca i32, align 4
  %12 = alloca i32, align 4
  %13 = alloca i32, align 4
  %14 = alloca i32, align 4
  store i32 0, i32* %1, align 4
  %15 = getelementptr inbounds [101 x i8], [101 x i8]* %2, i64 0, i64 0
  %16 = call i32 (i8*, ...) bitcast (i32 (...)* @gets to i32 (i8*, ...)*)(i8* %15)
  %17 = getelementptr inbounds [101 x i8], [101 x i8]* %3, i64 0, i64 0
  %18 = call i32 (i8*, ...) bitcast (i32 (...)* @gets to i32 (i8*, ...)*)(i8* %17)
  %19 = getelementptr inbounds [101 x i8], [101 x i8]* %4, i64 0, i64 0
  %20 = call i32 (i8*, ...) bitcast (i32 (...)* @gets to i32 (i8*, ...)*)(i8* %19)
  store i32 0, i32* %7, align 4
  store i32 0, i32* %8, align 4
  store i32 0, i32* %9, align 4
  %21 = getelementptr inbounds [101 x i8], [101 x i8]* %2, i64 0, i64 0
  %22 = call i64 @strlen(i8* %21) #3
  %23 = trunc i64 %22 to i32
  store i32 %23, i32* %13, align 4
  %24 = getelementptr inbounds [101 x i8], [101 x i8]* %3, i64 0, i64 0
  %25 = call i64 @strlen(i8* %24) #3
  %26 = trunc i64 %25 to i32
  store i32 %26, i32* %14, align 4
  store i32 0, i32* %5, align 4
  br label %27

27:                                               ; preds = %156, %0
  %28 = load i32, i32* %5, align 4
  %29 = load i32, i32* %13, align 4
  %30 = icmp slt i32 %28, %29
  br i1 %30, label %31, label %159

31:                                               ; preds = %27
  %32 = load i32, i32* %5, align 4
  %33 = sext i32 %32 to i64
  %34 = getelementptr inbounds [101 x i8], [101 x i8]* %2, i64 0, i64 %33
  %35 = load i8, i8* %34, align 1
  %36 = sext i8 %35 to i32
  %37 = getelementptr inbounds [101 x i8], [101 x i8]* %3, i64 0, i64 0
  %38 = load i8, i8* %37, align 16
  %39 = sext i8 %38 to i32
  %40 = icmp eq i32 %36, %39
  br i1 %40, label %41, label %155

41:                                               ; preds = %31
  %42 = load i32, i32* %5, align 4
  %43 = sub nsw i32 %42, 1
  %44 = sext i32 %43 to i64
  %45 = getelementptr inbounds [101 x i8], [101 x i8]* %2, i64 0, i64 %44
  %46 = load i8, i8* %45, align 1
  %47 = sext i8 %46 to i32
  %48 = icmp eq i32 %47, 32
  br i1 %48, label %52, label %49

49:                                               ; preds = %41
  %50 = load i32, i32* %5, align 4
  %51 = icmp eq i32 %50, 0
  br i1 %51, label %52, label %155

52:                                               ; preds = %49, %41
  store i32 0, i32* %8, align 4
  store i32 1, i32* %6, align 4
  br label %53

53:                                               ; preds = %75, %52
  %54 = load i32, i32* %6, align 4
  %55 = load i32, i32* %14, align 4
  %56 = icmp slt i32 %54, %55
  br i1 %56, label %57, label %78

57:                                               ; preds = %53
  %58 = load i32, i32* %6, align 4
  %59 = load i32, i32* %5, align 4
  %60 = add nsw i32 %58, %59
  %61 = sext i32 %60 to i64
  %62 = getelementptr inbounds [101 x i8], [101 x i8]* %2, i64 0, i64 %61
  %63 = load i8, i8* %62, align 1
  %64 = sext i8 %63 to i32
  %65 = load i32, i32* %6, align 4
  %66 = sext i32 %65 to i64
  %67 = getelementptr inbounds [101 x i8], [101 x i8]* %3, i64 0, i64 %66
  %68 = load i8, i8* %67, align 1
  %69 = sext i8 %68 to i32
  %70 = icmp eq i32 %64, %69
  br i1 %70, label %71, label %74

71:                                               ; preds = %57
  %72 = load i32, i32* %8, align 4
  %73 = add nsw i32 %72, 1
  store i32 %73, i32* %8, align 4
  br label %74

74:                                               ; preds = %71, %57
  br label %75

75:                                               ; preds = %74
  %76 = load i32, i32* %6, align 4
  %77 = add nsw i32 %76, 1
  store i32 %77, i32* %6, align 4
  br label %53

78:                                               ; preds = %53
  %79 = load i32, i32* %8, align 4
  %80 = load i32, i32* %14, align 4
  %81 = sub nsw i32 %80, 1
  %82 = icmp eq i32 %79, %81
  br i1 %82, label %83, label %154

83:                                               ; preds = %78
  %84 = load i32, i32* %9, align 4
  %85 = add nsw i32 %84, 1
  store i32 %85, i32* %9, align 4
  %86 = load i32, i32* %5, align 4
  %87 = sext i32 %86 to i64
  %88 = getelementptr inbounds [101 x i8], [101 x i8]* %2, i64 0, i64 %87
  store i8 0, i8* %88, align 1
  store i32 0, i32* %10, align 4
  store i32 0, i32* %11, align 4
  br label %89

89:                                               ; preds = %148, %83
  %90 = load i32, i32* %11, align 4
  %91 = load i32, i32* %5, align 4
  %92 = icmp slt i32 %90, %91
  br i1 %92, label %93, label %151

93:                                               ; preds = %89
  %94 = load i32, i32* %11, align 4
  %95 = sext i32 %94 to i64
  %96 = getelementptr inbounds [101 x i8], [101 x i8]* %2, i64 0, i64 %95
  %97 = load i8, i8* %96, align 1
  %98 = sext i8 %97 to i32
  %99 = icmp eq i32 %98, 0
  br i1 %99, label %100, label %103

100:                                              ; preds = %93
  %101 = load i32, i32* %10, align 4
  %102 = add nsw i32 %101, 1
  store i32 %102, i32* %10, align 4
  br label %103

103:                                              ; preds = %100, %93
  %104 = load i32, i32* %10, align 4
  %105 = load i32, i32* %9, align 4
  %106 = sub nsw i32 %105, 1
  %107 = icmp eq i32 %104, %106
  br i1 %107, label %108, label %147

108:                                              ; preds = %103
  %109 = load i32, i32* %11, align 4
  %110 = icmp eq i32 %109, 0
  br i1 %110, label %111, label %128

111:                                              ; preds = %108
  %112 = load i32, i32* %11, align 4
  store i32 %112, i32* %12, align 4
  br label %113

113:                                              ; preds = %124, %111
  %114 = load i32, i32* %12, align 4
  %115 = load i32, i32* %5, align 4
  %116 = icmp slt i32 %114, %115
  br i1 %116, label %117, label %127

117:                                              ; preds = %113
  %118 = load i32, i32* %12, align 4
  %119 = sext i32 %118 to i64
  %120 = getelementptr inbounds [101 x i8], [101 x i8]* %2, i64 0, i64 %119
  %121 = load i8, i8* %120, align 1
  %122 = sext i8 %121 to i32
  %123 = call i32 (i8*, ...) @printf(i8* getelementptr inbounds ([3 x i8], [3 x i8]* @.str, i64 0, i64 0), i32 %122)
  br label %124

124:                                              ; preds = %117
  %125 = load i32, i32* %12, align 4
  %126 = add nsw i32 %125, 1
  store i32 %126, i32* %12, align 4
  br label %113

127:                                              ; preds = %113
  br label %151

128:                                              ; preds = %108
  %129 = load i32, i32* %11, align 4
  %130 = load i32, i32* %14, align 4
  %131 = add nsw i32 %129, %130
  store i32 %131, i32* %12, align 4
  br label %132

132:                                              ; preds = %143, %128
  %133 = load i32, i32* %12, align 4
  %134 = load i32, i32* %5, align 4
  %135 = icmp slt i32 %133, %134
  br i1 %135, label %136, label %146

136:                                              ; preds = %132
  %137 = load i32, i32* %12, align 4
  %138 = sext i32 %137 to i64
  %139 = getelementptr inbounds [101 x i8], [101 x i8]* %2, i64 0, i64 %138
  %140 = load i8, i8* %139, align 1
  %141 = sext i8 %140 to i32
  %142 = call i32 (i8*, ...) @printf(i8* getelementptr inbounds ([3 x i8], [3 x i8]* @.str, i64 0, i64 0), i32 %141)
  br label %143

143:                                              ; preds = %136
  %144 = load i32, i32* %12, align 4
  %145 = add nsw i32 %144, 1
  store i32 %145, i32* %12, align 4
  br label %132

146:                                              ; preds = %132
  br label %151

147:                                              ; preds = %103
  br label %148

148:                                              ; preds = %147
  %149 = load i32, i32* %11, align 4
  %150 = add nsw i32 %149, 1
  store i32 %150, i32* %11, align 4
  br label %89

151:                                              ; preds = %146, %127, %89
  %152 = getelementptr inbounds [101 x i8], [101 x i8]* %4, i64 0, i64 0
  %153 = call i32 (i8*, ...) @printf(i8* getelementptr inbounds ([3 x i8], [3 x i8]* @.str.1, i64 0, i64 0), i8* %152)
  br label %154

154:                                              ; preds = %151, %78
  br label %155

155:                                              ; preds = %154, %49, %31
  br label %156

156:                                              ; preds = %155
  %157 = load i32, i32* %5, align 4
  %158 = add nsw i32 %157, 1
  store i32 %158, i32* %5, align 4
  br label %27

159:                                              ; preds = %27
  %160 = load i32, i32* %9, align 4
  %161 = icmp ne i32 %160, 0
  br i1 %161, label %162, label %205

162:                                              ; preds = %159
  store i32 0, i32* %5, align 4
  br label %163

163:                                              ; preds = %201, %162
  %164 = load i32, i32* %5, align 4
  %165 = load i32, i32* %13, align 4
  %166 = icmp slt i32 %164, %165
  br i1 %166, label %167, label %204

167:                                              ; preds = %163
  %168 = load i32, i32* %5, align 4
  %169 = sext i32 %168 to i64
  %170 = getelementptr inbounds [101 x i8], [101 x i8]* %2, i64 0, i64 %169
  %171 = load i8, i8* %170, align 1
  %172 = sext i8 %171 to i32
  %173 = icmp eq i32 %172, 0
  br i1 %173, label %174, label %177

174:                                              ; preds = %167
  %175 = load i32, i32* %7, align 4
  %176 = add nsw i32 %175, 1
  store i32 %176, i32* %7, align 4
  br label %177

177:                                              ; preds = %174, %167
  %178 = load i32, i32* %7, align 4
  %179 = load i32, i32* %9, align 4
  %180 = icmp eq i32 %178, %179
  br i1 %180, label %181, label %200

181:                                              ; preds = %177
  %182 = load i32, i32* %5, align 4
  %183 = load i32, i32* %14, align 4
  %184 = add nsw i32 %182, %183
  store i32 %184, i32* %6, align 4
  br label %185

185:                                              ; preds = %196, %181
  %186 = load i32, i32* %6, align 4
  %187 = load i32, i32* %13, align 4
  %188 = icmp slt i32 %186, %187
  br i1 %188, label %189, label %199

189:                                              ; preds = %185
  %190 = load i32, i32* %6, align 4
  %191 = sext i32 %190 to i64
  %192 = getelementptr inbounds [101 x i8], [101 x i8]* %2, i64 0, i64 %191
  %193 = load i8, i8* %192, align 1
  %194 = sext i8 %193 to i32
  %195 = call i32 (i8*, ...) @printf(i8* getelementptr inbounds ([3 x i8], [3 x i8]* @.str, i64 0, i64 0), i32 %194)
  br label %196

196:                                              ; preds = %189
  %197 = load i32, i32* %6, align 4
  %198 = add nsw i32 %197, 1
  store i32 %198, i32* %6, align 4
  br label %185

199:                                              ; preds = %185
  br label %204

200:                                              ; preds = %177
  br label %201

201:                                              ; preds = %200
  %202 = load i32, i32* %5, align 4
  %203 = add nsw i32 %202, 1
  store i32 %203, i32* %5, align 4
  br label %163

204:                                              ; preds = %199, %163
  br label %208

205:                                              ; preds = %159
  %206 = getelementptr inbounds [101 x i8], [101 x i8]* %2, i64 0, i64 0
  %207 = call i32 @puts(i8* %206)
  br label %208

208:                                              ; preds = %205, %204
  ret i32 0
}

declare dso_local i32 @gets(...) #1

; Function Attrs: nounwind readonly
declare dso_local i64 @strlen(i8*) #2

declare dso_local i32 @printf(i8*, ...) #1

declare dso_local i32 @puts(i8*) #1


!llvm.module.flags = !{!0}
!llvm.ident = !{!1}

!0 = !{i32 1, !"wchar_size", i32 4}
!1 = !{!"clang version 10.0.0-4ubuntu1 "}
